; Function Attrs: mustprogress nofree nounwind willreturn memory(write, argmem: readwrite) uwtable
define { <2 x float>, float } @_ZN32pxrInternal_v0_24__pxrReserved__12GfApplyGammaERKNS_7GfVec3fEd(ptr noundef nonnull readonly align 4 captures(none) dereferenceable(12) %0, double noundef %1) local_unnamed_addr #1 {
  %3 = load float, ptr %0, align 4
  %4 = fpext float %3 to double
  %5 = tail call noundef double @pow(double noundef %4, double noundef %1) #8
  %6 = fptrunc double %5 to float
  %7 = getelementptr inbounds nuw i8, ptr %0, i64 4
  %8 = load float, ptr %7, align 4
  %9 = fpext float %8 to double
  %10 = tail call noundef double @pow(double noundef %9, double noundef %1) #8
  %11 = fptrunc double %10 to float
  %12 = getelementptr inbounds nuw i8, ptr %0, i64 8
  %13 = load float, ptr %12, align 4
  %14 = fpext float %13 to double
  %15 = tail call noundef double @pow(double noundef %14, double noundef %1) #8
  %16 = fptrunc double %15 to float
  %.sroa.0.0.vec.insert = insertelement <2 x float> poison, float %6, i64 0
  %.sroa.0.4.vec.insert = insertelement <2 x float> %.sroa.0.0.vec.insert, float %11, i64 1
  %.fca.0.insert = insertvalue { <2 x float>, float } poison, <2 x float> %.sroa.0.4.vec.insert, 0
  %.fca.1.insert = insertvalue { <2 x float>, float } %.fca.0.insert, float %16, 1
  ret { <2 x float>, float } %.fca.1.insert
}